(dp0
S'1609'
p1
(lp2
(lp3
I16
aI12
aI8
aI9
aa(lp4
I16
aI12
aI13
aI9
aa(lp5
I16
aI17
aI13
aI9
aa(lp6
I16
aI12
aI8
aI4
aI5
aI9
aa(lp7
I16
aI12
aI13
aI14
aI10
aI9
aa(lp8
I16
aI17
aI13
aI12
aI8
aI9
aa(lp9
I16
aI17
aI13
aI14
aI10
aI9
aa(lp10
I16
aI17
aI18
aI14
aI10
aI9
aa(lp11
I16
aI17
aI18
aI14
aI13
aI9
aasS'0016'
p12
(lp13
(lp14
I0
aI4
aI8
aI12
aI16
aa(lp15
I0
aI1
aI5
aI4
aI8
aI12
aI16
aa(lp16
I0
aI1
aI5
aI9
aI8
aI12
aI16
aa(lp17
I0
aI1
aI5
aI9
aI13
aI12
aI16
aa(lp18
I0
aI1
aI5
aI9
aI13
aI17
aI16
aa(lp19
I0
aI4
aI5
aI9
aI8
aI12
aI16
aa(lp20
I0
aI4
aI5
aI9
aI13
aI12
aI16
aa(lp21
I0
aI4
aI5
aI9
aI13
aI17
aI16
aa(lp22
I0
aI4
aI8
aI9
aI13
aI12
aI16
aa(lp23
I0
aI4
aI8
aI9
aI13
aI17
aI16
aasS'0819'
p24
(lp25
(lp26
I8
aI9
aI10
aI11
aI15
aI19
aa(lp27
I8
aI9
aI10
aI14
aI15
aI19
aa(lp28
I8
aI9
aI10
aI14
aI18
aI19
aa(lp29
I8
aI9
aI13
aI14
aI15
aI19
aa(lp30
I8
aI9
aI13
aI14
aI18
aI19
aa(lp31
I8
aI9
aI13
aI17
aI18
aI19
aa(lp32
I8
aI12
aI13
aI14
aI15
aI19
aa(lp33
I8
aI12
aI13
aI14
aI18
aI19
aa(lp34
I8
aI12
aI13
aI17
aI18
aI19
aa(lp35
I8
aI12
aI16
aI17
aI18
aI19
aasS'1600'
p36
(lp37
(lp38
I16
aI12
aI8
aI4
aI0
aa(lp39
I16
aI12
aI8
aI4
aI5
aI1
aI0
aa(lp40
I16
aI12
aI8
aI9
aI5
aI1
aI0
aa(lp41
I16
aI12
aI8
aI9
aI5
aI4
aI0
aa(lp42
I16
aI12
aI13
aI9
aI5
aI1
aI0
aa(lp43
I16
aI12
aI13
aI9
aI5
aI4
aI0
aa(lp44
I16
aI12
aI13
aI9
aI8
aI4
aI0
aa(lp45
I16
aI17
aI13
aI9
aI5
aI1
aI0
aa(lp46
I16
aI17
aI13
aI9
aI5
aI4
aI0
aa(lp47
I16
aI17
aI13
aI9
aI8
aI4
aI0
aasS'0916'
p48
(lp49
(lp50
I9
aI8
aI12
aI16
aa(lp51
I9
aI13
aI12
aI16
aa(lp52
I9
aI13
aI17
aI16
aa(lp53
I9
aI5
aI4
aI8
aI12
aI16
aa(lp54
I9
aI8
aI12
aI13
aI17
aI16
aa(lp55
I9
aI10
aI14
aI13
aI12
aI16
aa(lp56
I9
aI10
aI14
aI13
aI17
aI16
aa(lp57
I9
aI10
aI14
aI18
aI17
aI16
aa(lp58
I9
aI13
aI14
aI18
aI17
aI16
aasS'1611'
p59
(lp60
(lp61
I16
aI12
aI8
aI9
aI10
aI11
aa(lp62
I16
aI12
aI13
aI9
aI10
aI11
aa(lp63
I16
aI12
aI13
aI14
aI10
aI11
aa(lp64
I16
aI12
aI13
aI14
aI15
aI11
aa(lp65
I16
aI17
aI13
aI9
aI10
aI11
aa(lp66
I16
aI17
aI13
aI14
aI10
aI11
aa(lp67
I16
aI17
aI13
aI14
aI15
aI11
aa(lp68
I16
aI17
aI18
aI14
aI10
aI11
aa(lp69
I16
aI17
aI18
aI14
aI15
aI11
aa(lp70
I16
aI17
aI18
aI19
aI15
aI11
aasS'1019'
p71
(lp72
(lp73
I10
aI11
aI15
aI19
aa(lp74
I10
aI14
aI15
aI19
aa(lp75
I10
aI14
aI18
aI19
aa(lp76
I10
aI6
aI7
aI11
aI15
aI19
aa(lp77
I10
aI9
aI13
aI14
aI15
aI19
aa(lp78
I10
aI9
aI13
aI14
aI18
aI19
aa(lp79
I10
aI9
aI13
aI17
aI18
aI19
aa(lp80
I10
aI11
aI15
aI14
aI18
aI19
aa(lp81
I10
aI14
aI13
aI17
aI18
aI19
aasS'1908'
p82
(lp83
(lp84
I19
aI15
aI11
aI10
aI9
aI8
aa(lp85
I19
aI15
aI14
aI10
aI9
aI8
aa(lp86
I19
aI15
aI14
aI13
aI9
aI8
aa(lp87
I19
aI15
aI14
aI13
aI12
aI8
aa(lp88
I19
aI18
aI14
aI10
aI9
aI8
aa(lp89
I19
aI18
aI14
aI13
aI9
aI8
aa(lp90
I19
aI18
aI14
aI13
aI12
aI8
aa(lp91
I19
aI18
aI17
aI13
aI9
aI8
aa(lp92
I19
aI18
aI17
aI13
aI12
aI8
aa(lp93
I19
aI18
aI17
aI16
aI12
aI8
aasS'1116'
p94
(lp95
(lp96
I11
aI10
aI9
aI8
aI12
aI16
aa(lp97
I11
aI10
aI9
aI13
aI12
aI16
aa(lp98
I11
aI10
aI9
aI13
aI17
aI16
aa(lp99
I11
aI10
aI14
aI13
aI12
aI16
aa(lp100
I11
aI10
aI14
aI13
aI17
aI16
aa(lp101
I11
aI10
aI14
aI18
aI17
aI16
aa(lp102
I11
aI15
aI14
aI13
aI12
aI16
aa(lp103
I11
aI15
aI14
aI13
aI17
aI16
aa(lp104
I11
aI15
aI14
aI18
aI17
aI16
aa(lp105
I11
aI15
aI19
aI18
aI17
aI16
aasS'1910'
p106
(lp107
(lp108
I19
aI15
aI11
aI10
aa(lp109
I19
aI15
aI14
aI10
aa(lp110
I19
aI18
aI14
aI10
aa(lp111
I19
aI15
aI11
aI7
aI6
aI10
aa(lp112
I19
aI15
aI14
aI13
aI9
aI10
aa(lp113
I19
aI18
aI14
aI13
aI9
aI10
aa(lp114
I19
aI18
aI14
aI15
aI11
aI10
aa(lp115
I19
aI18
aI17
aI13
aI9
aI10
aa(lp116
I19
aI18
aI17
aI13
aI14
aI10
aasS'1903'
p117
(lp118
(lp119
I19
aI15
aI11
aI7
aI3
aa(lp120
I19
aI15
aI11
aI7
aI6
aI2
aI3
aa(lp121
I19
aI15
aI11
aI10
aI6
aI2
aI3
aa(lp122
I19
aI15
aI11
aI10
aI6
aI7
aI3
aa(lp123
I19
aI15
aI14
aI10
aI6
aI2
aI3
aa(lp124
I19
aI15
aI14
aI10
aI6
aI7
aI3
aa(lp125
I19
aI15
aI14
aI10
aI11
aI7
aI3
aa(lp126
I19
aI18
aI14
aI10
aI6
aI2
aI3
aa(lp127
I19
aI18
aI14
aI10
aI6
aI7
aI3
aa(lp128
I19
aI18
aI14
aI10
aI11
aI7
aI3
aasS'0319'
p129
(lp130
(lp131
I3
aI7
aI11
aI15
aI19
aa(lp132
I3
aI2
aI6
aI7
aI11
aI15
aI19
aa(lp133
I3
aI2
aI6
aI10
aI11
aI15
aI19
aa(lp134
I3
aI2
aI6
aI10
aI14
aI15
aI19
aa(lp135
I3
aI2
aI6
aI10
aI14
aI18
aI19
aa(lp136
I3
aI7
aI6
aI10
aI11
aI15
aI19
aa(lp137
I3
aI7
aI6
aI10
aI14
aI15
aI19
aa(lp138
I3
aI7
aI6
aI10
aI14
aI18
aI19
aa(lp139
I3
aI7
aI11
aI10
aI14
aI15
aI19
aa(lp140
I3
aI7
aI11
aI10
aI14
aI18
aI19
aas.