(dp0
S'1609'
p1
(lp2
S'122'
p3
aS'212'
p4
aS'221'
p5
aS'11202'
p6
aS'11220'
p7
aS'12120'
p8
aS'12021'
p9
aS'21120'
p10
aS'22213'
p11
asS'0016'
p12
(lp13
S'3333'
p14
aS'130333'
p15
aS'133033'
p16
aS'133303'
p17
aS'133330'
p18
aS'313033'
p19
aS'313303'
p20
aS'313330'
p21
aS'331303'
p22
aS'331330'
p23
asS'0819'
p24
(lp25
S'11133'
p26
aS'11313'
p27
aS'11331'
p28
aS'13113'
p29
aS'13131'
p30
aS'13311'
p31
aS'31113'
p32
aS'31131'
p33
aS'31311'
p34
aS'33111'
p35
asS'1600'
p36
(lp37
S'2222'
p38
aS'120222'
p39
aS'122022'
p40
aS'122202'
p41
aS'122220'
p42
aS'212022'
p43
aS'212202'
p44
aS'212220'
p45
aS'221202'
p46
aS'221220'
p47
asS'0916'
p48
(lp49
S'033'
p50
aS'303'
p51
aS'330'
p52
aS'13003'
p53
aS'13030'
p54
aS'13300'
p55
aS'03130'
p56
aS'31300'
p57
aS'20333'
p58
asS'1611'
p59
(lp60
S'11122'
p61
aS'11212'
p62
aS'11221'
p63
aS'12112'
p64
aS'12121'
p65
aS'12211'
p66
aS'21112'
p67
aS'21121'
p68
aS'21211'
p69
aS'22111'
p70
asS'1019'
p71
(lp72
S'133'
p73
aS'313'
p74
aS'331'
p75
aS'13031'
p76
aS'03113'
p77
aS'03131'
p78
aS'03311'
p79
aS'30311'
p80
aS'21333'
p81
asS'1908'
p82
(lp83
S'00022'
p84
aS'00202'
p85
aS'00220'
p86
aS'02002'
p87
aS'02020'
p88
aS'02200'
p89
aS'20002'
p90
aS'20020'
p91
aS'20200'
p92
aS'22000'
p93
asS'1116'
p94
(lp95
S'00033'
p96
aS'00303'
p97
aS'00330'
p98
aS'03003'
p99
aS'03030'
p100
aS'03300'
p101
aS'30003'
p102
aS'30030'
p103
aS'30300'
p104
aS'33000'
p105
asS'1910'
p106
(lp107
S'022'
p108
aS'202'
p109
aS'220'
p110
aS'00212'
p111
aS'00221'
p112
aS'02120'
p113
aS'02021'
p114
aS'20021'
p115
aS'22203'
p116
asS'1903'
p117
(lp118
S'2222'
p119
aS'021222'
p120
aS'022122'
p121
aS'022212'
p122
aS'022221'
p123
aS'202122'
p124
aS'202212'
p125
aS'202221'
p126
aS'220212'
p127
aS'220221'
p128
asS'0319'
p129
(lp130
S'3333'
p131
aS'031333'
p132
aS'033133'
p133
aS'033313'
p134
aS'033331'
p135
aS'303133'
p136
aS'303313'
p137
aS'303331'
p138
aS'330313'
p139
aS'330331'
p140
as.