(dp0
S'1609'
p1
(lp2
(lp3
I16
aI12
aI8
aI9
aa(lp4
I16
aI12
aI13
aI9
aa(lp5
I16
aI17
aI13
aI9
aa(lp6
I16
aI12
aI8
aI4
aI5
aI9
aa(lp7
I16
aI12
aI13
aI14
aI10
aI9
aa(lp8
I16
aI17
aI13
aI12
aI8
aI9
aa(lp9
I16
aI17
aI13
aI14
aI10
aI9
aa(lp10
I16
aI17
aI18
aI14
aI10
aI9
aa(lp11
I16
aI17
aI18
aI14
aI13
aI9
aa(lp12
I16
aI12
aI8
aI4
aI0
aI1
aI5
aI9
aasS'1608'
p13
(lp14
(lp15
I16
aI12
aI8
aa(lp16
I16
aI12
aI13
aI9
aI8
aa(lp17
I16
aI17
aI13
aI9
aI8
aa(lp18
I16
aI17
aI13
aI12
aI8
aa(lp19
I16
aI12
aI13
aI9
aI5
aI4
aI8
aa(lp20
I16
aI12
aI13
aI14
aI10
aI9
aI8
aa(lp21
I16
aI17
aI13
aI9
aI5
aI4
aI8
aa(lp22
I16
aI17
aI13
aI14
aI10
aI9
aI8
aa(lp23
I16
aI17
aI18
aI14
aI10
aI9
aI8
aa(lp24
I16
aI17
aI18
aI14
aI13
aI9
aI8
aasS'0010'
p25
(lp26
(lp27
I0
aI1
aI2
aI6
aI10
aa(lp28
I0
aI1
aI5
aI6
aI10
aa(lp29
I0
aI1
aI5
aI9
aI10
aa(lp30
I0
aI4
aI5
aI6
aI10
aa(lp31
I0
aI4
aI5
aI9
aI10
aa(lp32
I0
aI4
aI8
aI9
aI10
aa(lp33
I0
aI1
aI2
aI3
aI7
aI6
aI10
aa(lp34
I0
aI1
aI2
aI3
aI7
aI11
aI10
aa(lp35
I0
aI1
aI2
aI6
aI5
aI9
aI10
aa(lp36
I0
aI1
aI2
aI6
aI7
aI11
aI10
aasS'1603'
p37
(lp38
(lp39
I16
aI12
aI8
aI4
aI0
aI1
aI2
aI3
aa(lp40
I16
aI12
aI8
aI4
aI5
aI1
aI2
aI3
aa(lp41
I16
aI12
aI8
aI4
aI5
aI6
aI2
aI3
aa(lp42
I16
aI12
aI8
aI4
aI5
aI6
aI7
aI3
aa(lp43
I16
aI12
aI8
aI9
aI5
aI1
aI2
aI3
aa(lp44
I16
aI12
aI8
aI9
aI5
aI6
aI2
aI3
aa(lp45
I16
aI12
aI8
aI9
aI5
aI6
aI7
aI3
aa(lp46
I16
aI12
aI8
aI9
aI10
aI6
aI2
aI3
aa(lp47
I16
aI12
aI8
aI9
aI10
aI6
aI7
aI3
aa(lp48
I16
aI12
aI8
aI9
aI10
aI11
aI7
aI3
aasS'0003'
p49
(lp50
(lp51
I0
aI1
aI2
aI3
aa(lp52
I0
aI1
aI2
aI6
aI7
aI3
aa(lp53
I0
aI1
aI5
aI6
aI2
aI3
aa(lp54
I0
aI1
aI5
aI6
aI7
aI3
aa(lp55
I0
aI4
aI5
aI1
aI2
aI3
aa(lp56
I0
aI4
aI5
aI6
aI2
aI3
aa(lp57
I0
aI4
aI5
aI6
aI7
aI3
aa(lp58
I0
aI1
aI2
aI6
aI10
aI11
aI7
aI3
aa(lp59
I0
aI1
aI5
aI6
aI10
aI11
aI7
aI3
aa(lp60
I0
aI1
aI5
aI9
aI10
aI6
aI2
aI3
aasS'0008'
p61
(lp62
(lp63
I0
aI4
aI8
aa(lp64
I0
aI1
aI5
aI4
aI8
aa(lp65
I0
aI1
aI5
aI9
aI8
aa(lp66
I0
aI4
aI5
aI9
aI8
aa(lp67
I0
aI1
aI2
aI6
aI5
aI4
aI8
aa(lp68
I0
aI1
aI2
aI6
aI5
aI9
aI8
aa(lp69
I0
aI1
aI2
aI6
aI10
aI9
aI8
aa(lp70
I0
aI1
aI5
aI6
aI10
aI9
aI8
aa(lp71
I0
aI1
aI5
aI9
aI13
aI12
aI8
aa(lp72
I0
aI4
aI5
aI6
aI10
aI9
aI8
aasS'0009'
p73
(lp74
(lp75
I0
aI1
aI5
aI9
aa(lp76
I0
aI4
aI5
aI9
aa(lp77
I0
aI4
aI8
aI9
aa(lp78
I0
aI1
aI2
aI6
aI5
aI9
aa(lp79
I0
aI1
aI2
aI6
aI10
aI9
aa(lp80
I0
aI1
aI5
aI4
aI8
aI9
aa(lp81
I0
aI1
aI5
aI6
aI10
aI9
aa(lp82
I0
aI4
aI5
aI6
aI10
aI9
aa(lp83
I0
aI4
aI8
aI12
aI13
aI9
aa(lp84
I0
aI1
aI2
aI3
aI7
aI6
aI5
aI9
aasS'0019'
p85
(lp86
(lp87
I0
aI1
aI2
aI3
aI7
aI11
aI15
aI19
aa(lp88
I0
aI1
aI2
aI6
aI7
aI11
aI15
aI19
aa(lp89
I0
aI1
aI2
aI6
aI10
aI11
aI15
aI19
aa(lp90
I0
aI1
aI2
aI6
aI10
aI14
aI15
aI19
aa(lp91
I0
aI1
aI2
aI6
aI10
aI14
aI18
aI19
aa(lp92
I0
aI1
aI5
aI6
aI7
aI11
aI15
aI19
aa(lp93
I0
aI1
aI5
aI6
aI10
aI11
aI15
aI19
aa(lp94
I0
aI1
aI5
aI6
aI10
aI14
aI15
aI19
aa(lp95
I0
aI1
aI5
aI6
aI10
aI14
aI18
aI19
aa(lp96
I0
aI1
aI5
aI9
aI10
aI11
aI15
aI19
aasS'1611'
p97
(lp98
(lp99
I16
aI12
aI8
aI9
aI10
aI11
aa(lp100
I16
aI12
aI13
aI9
aI10
aI11
aa(lp101
I16
aI12
aI13
aI14
aI10
aI11
aa(lp102
I16
aI12
aI13
aI14
aI15
aI11
aa(lp103
I16
aI17
aI13
aI9
aI10
aI11
aa(lp104
I16
aI17
aI13
aI14
aI10
aI11
aa(lp105
I16
aI17
aI13
aI14
aI15
aI11
aa(lp106
I16
aI17
aI18
aI14
aI10
aI11
aa(lp107
I16
aI17
aI18
aI14
aI15
aI11
aa(lp108
I16
aI17
aI18
aI19
aI15
aI11
aasS'1110'
p109
(lp110
(lp111
I11
aI10
aa(lp112
I11
aI7
aI6
aI10
aa(lp113
I11
aI15
aI14
aI10
aa(lp114
I11
aI7
aI3
aI2
aI6
aI10
aa(lp115
I11
aI7
aI6
aI5
aI9
aI10
aa(lp116
I11
aI15
aI14
aI13
aI9
aI10
aa(lp117
I11
aI15
aI19
aI18
aI14
aI10
aa(lp118
I11
aI7
aI3
aI2
aI1
aI5
aI6
aI10
aa(lp119
I11
aI7
aI3
aI2
aI1
aI5
aI9
aI10
aa(lp120
I11
aI7
aI3
aI2
aI6
aI5
aI9
aI10
aasS'1610'
p121
(lp122
(lp123
I16
aI12
aI8
aI9
aI10
aa(lp124
I16
aI12
aI13
aI9
aI10
aa(lp125
I16
aI12
aI13
aI14
aI10
aa(lp126
I16
aI17
aI13
aI9
aI10
aa(lp127
I16
aI17
aI13
aI14
aI10
aa(lp128
I16
aI17
aI18
aI14
aI10
aa(lp129
I16
aI12
aI8
aI4
aI5
aI6
aI10
aa(lp130
I16
aI12
aI8
aI4
aI5
aI9
aI10
aa(lp131
I16
aI12
aI8
aI9
aI5
aI6
aI10
aa(lp132
I16
aI12
aI8
aI9
aI13
aI14
aI10
aasS'1119'
p133
(lp134
(lp135
I11
aI15
aI19
aa(lp136
I11
aI10
aI14
aI15
aI19
aa(lp137
I11
aI10
aI14
aI18
aI19
aa(lp138
I11
aI15
aI14
aI18
aI19
aa(lp139
I11
aI7
aI6
aI10
aI14
aI15
aI19
aa(lp140
I11
aI7
aI6
aI10
aI14
aI18
aI19
aa(lp141
I11
aI10
aI9
aI13
aI14
aI15
aI19
aa(lp142
I11
aI10
aI9
aI13
aI14
aI18
aI19
aa(lp143
I11
aI10
aI9
aI13
aI17
aI18
aI19
aa(lp144
I11
aI10
aI14
aI13
aI17
aI18
aI19
aasS'1109'
p145
(lp146
(lp147
I11
aI10
aI9
aa(lp148
I11
aI7
aI6
aI5
aI9
aa(lp149
I11
aI7
aI6
aI10
aI9
aa(lp150
I11
aI10
aI6
aI5
aI9
aa(lp151
I11
aI10
aI14
aI13
aI9
aa(lp152
I11
aI15
aI14
aI10
aI9
aa(lp153
I11
aI15
aI14
aI13
aI9
aa(lp154
I11
aI7
aI3
aI2
aI1
aI5
aI9
aa(lp155
I11
aI7
aI3
aI2
aI6
aI5
aI9
aa(lp156
I11
aI7
aI3
aI2
aI6
aI10
aI9
aasS'1108'
p157
(lp158
(lp159
I11
aI10
aI9
aI8
aa(lp160
I11
aI7
aI6
aI5
aI4
aI8
aa(lp161
I11
aI7
aI6
aI5
aI9
aI8
aa(lp162
I11
aI7
aI6
aI10
aI9
aI8
aa(lp163
I11
aI10
aI6
aI5
aI4
aI8
aa(lp164
I11
aI10
aI6
aI5
aI9
aI8
aa(lp165
I11
aI10
aI9
aI5
aI4
aI8
aa(lp166
I11
aI10
aI9
aI13
aI12
aI8
aa(lp167
I11
aI10
aI14
aI13
aI9
aI8
aa(lp168
I11
aI10
aI14
aI13
aI12
aI8
aasS'1103'
p169
(lp170
(lp171
I11
aI7
aI3
aa(lp172
I11
aI7
aI6
aI2
aI3
aa(lp173
I11
aI10
aI6
aI2
aI3
aa(lp174
I11
aI10
aI6
aI7
aI3
aa(lp175
I11
aI7
aI6
aI5
aI1
aI2
aI3
aa(lp176
I11
aI10
aI6
aI5
aI1
aI2
aI3
aa(lp177
I11
aI10
aI9
aI5
aI1
aI2
aI3
aa(lp178
I11
aI10
aI9
aI5
aI6
aI2
aI3
aa(lp179
I11
aI10
aI9
aI5
aI6
aI7
aI3
aa(lp180
I11
aI15
aI14
aI10
aI6
aI2
aI3
aas.